; Function Attrs: mustprogress nofree norecurse nosync nounwind willreturn memory(read, inaccessiblemem: none) uwtable
define dso_local noundef zeroext i1 @_ZNK5clang7CodeGen7ABIInfo12isOHOSFamilyEv(ptr nocapture noundef nonnull readonly align 8 dereferenceable(20) %0) local_unnamed_addr #5 align 2 {
  %2 = getelementptr inbounds nuw i8, ptr %0, i64 8
  %3 = load ptr, ptr %2, align 8
  %4 = getelementptr inbounds nuw i8, ptr %3, i64 24
  %5 = load ptr, ptr %4, align 8
  %6 = getelementptr inbounds i8, ptr %5, i64 264
  %7 = load i32, ptr %6, align 8
  %8 = icmp eq i32 %7, 41
  %9 = getelementptr inbounds i8, ptr %5, i64 260
  %10 = load i32, ptr %9, align 4
  %11 = icmp eq i32 %10, 38
  %12 = select i1 %8, i1 true, i1 %11
  ret i1 %12
}